target datalayout = "e-m:e-p270:32:32-p271:32:32-p272:64:64-i64:64-i128:128-f80:128-n8:16:32:64-S128"
target triple = "x86_64-pc-linux-gnu"

%struct.object_id = type { [32 x i8], i32 }
%struct.ref = type { ptr, %struct.object_id, %struct.object_id, %struct.object_id, ptr, ptr, i8, i32, i32, i32, ptr, ptr, ptr, [0 x i8] }

; Function Attrs: nounwind uwtable
define internal ptr @iterate_ref_map(ptr noundef %0) #0 {
  %2 = alloca ptr, align 8
  %3 = alloca ptr, align 8
  %4 = alloca ptr, align 8
  %5 = alloca ptr, align 8
  %6 = alloca i32, align 4
  store ptr %0, ptr %3, align 8, !tbaa !108
  call void @llvm.lifetime.start.p0(i64 8, ptr %4) #11
  %7 = load ptr, ptr %3, align 8, !tbaa !108
  store ptr %7, ptr %4, align 8, !tbaa !207
  call void @llvm.lifetime.start.p0(i64 8, ptr %5) #11
  %8 = load ptr, ptr %4, align 8, !tbaa !207
  %9 = load ptr, ptr %8, align 8, !tbaa !187
  store ptr %9, ptr %5, align 8, !tbaa !187
  br label %10

10:                                               ; preds = %20, %1
  %11 = load ptr, ptr %5, align 8, !tbaa !187
  %12 = icmp ne ptr %11, null
  br i1 %12, label %13, label %18

13:                                               ; preds = %10
  %14 = load ptr, ptr %5, align 8, !tbaa !187
  %15 = getelementptr inbounds nuw %struct.ref, ptr %14, i32 0, i32 9
  %16 = load i32, ptr %15, align 4, !tbaa !4
  %17 = icmp eq i32 %16, 8
  br label %18

18:                                               ; preds = %13, %10
  %19 = phi i1 [ false, %10 ], [ %17, %13 ]
  br i1 %19, label %20, label %24

20:                                               ; preds = %18
  %21 = load ptr, ptr %5, align 8, !tbaa !187
  %22 = getelementptr inbounds nuw %struct.ref, ptr %21, i32 0, i32 0
  %23 = load ptr, ptr %22, align 8, !tbaa !187
  store ptr %23, ptr %5, align 8, !tbaa !187
  br label %10, !llvm.loop !277

24:                                               ; preds = %18
  %25 = load ptr, ptr %5, align 8, !tbaa !187
  %26 = icmp ne ptr %25, null
  br i1 %26, label %28, label %27

27:                                               ; preds = %24
  store ptr null, ptr %2, align 8
  store i32 1, ptr %6, align 4
  br label %35

28:                                               ; preds = %24
  %29 = load ptr, ptr %5, align 8, !tbaa !187
  %30 = getelementptr inbounds nuw %struct.ref, ptr %29, i32 0, i32 0
  %31 = load ptr, ptr %30, align 8, !tbaa !187
  %32 = load ptr, ptr %4, align 8, !tbaa !207
  store ptr %31, ptr %32, align 8, !tbaa !187
  %33 = load ptr, ptr %5, align 8, !tbaa !187
  %34 = getelementptr inbounds nuw %struct.ref, ptr %33, i32 0, i32 1
  store ptr %34, ptr %2, align 8
  store i32 1, ptr %6, align 4
  br label %35

35:                                               ; preds = %28, %27
  call void @llvm.lifetime.end.p0(i64 8, ptr %5) #11
  call void @llvm.lifetime.end.p0(i64 8, ptr %4) #11
  %36 = load ptr, ptr %2, align 8
  ret ptr %36
}