; Function Attrs: nofree norecurse nosync nounwind memory(read, argmem: readwrite, inaccessiblemem: none) uwtable
define internal ptr @iterate_ref_map(ptr noundef captures(none) %0) #14 {
  br label %2

2:                                                ; preds = %3, %1
  %.0.in = phi ptr [ %0, %1 ], [ %.0, %3 ]
  %.0 = load ptr, ptr %.0.in, align 8, !tbaa !122
  %.not = icmp eq ptr %.0, null
  br i1 %.not, label %.critedge11, label %3

3:                                                ; preds = %2
  %4 = getelementptr inbounds nuw i8, ptr %.0, i64 148
  %5 = load i32, ptr %4, align 4, !tbaa !9
  %6 = icmp eq i32 %5, 8
  br i1 %6, label %2, label %.critedge, !llvm.loop !226

.critedge:                                        ; preds = %3
  %7 = load ptr, ptr %.0, align 8, !tbaa !122
  store ptr %7, ptr %0, align 8, !tbaa !122
  %8 = getelementptr inbounds nuw i8, ptr %.0, i64 8
  br label %.critedge11

.critedge11:                                      ; preds = %2, %.critedge
  %.010 = phi ptr [ %8, %.critedge ], [ null, %2 ]
  ret ptr %.010
}